(dp0
I0
I6
sI1
I4
sI2
I0
sI3
I2
sI4
I5
sI5
I9
sI6
I3
sI7
I9
sI8
I9
sI9
I9
sI10
I8
sI11
I0
sI12
I5
sI13
I7
sI14
I0
sI15
I2
sI16
I0
sI17
I0
sI18
I5
sI19
I6
sI20
I3
sI21
I5
sI22
I6
sI23
I4
sI24
I6
sI25
I2
sI26
I3
sI27
I7
sI28
I1
sI29
I6
sI30
I3
sI31
I5
sI32
I1
sI33
I9
sI34
I3
sI35
I0
sI36
I4
sI37
I3
sI38
I7
sI39
I7
sI40
I4
sI41
I9
sI42
I0
sI43
I8
sI44
I0
sI45
I4
sI46
I0
sI47
I9
sI48
I8
sI49
I4
sI50
I1
sI51
I2
sI52
I7
sI53
I7
sI54
I8
sI55
I5
sI56
I2
sI57
I8
sI58
I0
sI59
I1
sI60
I7
sI61
I2
sI62
I2
sI63
I7
sI64
I9
sI65
I1
sI66
I4
sI67
I4
sI68
I8
sI69
I1
sI70
I1
sI71
I1
sI72
I9
sI73
I1
sI74
I6
sI75
I4
sI76
I0
sI77
I8
sI78
I5
sI79
I4
sI80
I9
sI81
I1
sI82
I9
sI83
I8
sI84
I2
sI85
I2
sI86
I8
sI87
I9
sI88
I1
sI89
I7
sI90
I2
sI91
I0
sI92
I6
sI93
I6
sI94
I4
sI95
I3
sI96
I5
sI97
I3
sI98
I7
sI99
I7
sI100
I8
sI101
I5
sI102
I3
sI103
I7
sI104
I1
sI105
I5
sI106
I3
sI107
I8
sI108
I6
sI109
I3
sI110
I2
sI111
I5
sI112
I4
sI113
I4
sI114
I8
sI115
I3
sI116
I9
sI117
I6
sI118
I8
sI119
I2
sI120
I5
sI121
I4
sI122
I3
sI123
I5
sI124
I9
sI125
I6
sI126
I1
sI127
I0
sI128
I5
sI129
I1
sI130
I8
sI131
I7
sI132
I8
sI133
I8
sI134
I0
sI135
I7
sI136
I6
sI137
I2
sI138
I3
sI139
I1
sI140
I0
sI141
I6
sI142
I9
sI143
I9
sI144
I2
sI145
I3
sI146
I6
sI147
I0
sI148
I2
sI149
I1
sI150
I7
sI151
I7
sI152
I4
sI153
I5
sI154
I6
sI155
I5
sI156
I3
sI157
I2
sI158
I4
sI159
I6
s.